(lp0
(lp1
I3
aI5
aI8
aI10
aI13
aI16
aI19
aI22
aI24
aI27
aI30
aI33
aI36
aI39
aI41
aI44
aI46
aI50
aI52
aI55
aI56
aI60
aI63
aI66
aI69
aI71
aI75
aI77
aI79
aI82
aI85
aI88
aa(lp2
I16
aI19
aI21
aI24
aI28
aI30
aI34
aI37
aI39
aI43
aI45
aI48
aI52
aI54
aI58
aI60
aI62
aI65
aI66
aI71
aI74
aI77
aI80
aI81
aI84
aI87
aI91
aI94
aI97
aI100
aI103
aI106
aa(lp3
I47
aI49
aI52
aI54
aI57
aI59
aI62
aI64
aI68
aI70
aI73
aI75
aI78
aI81
aI83
aI86
aI88
aI90
aI93
aI95
aI99
aI101
aI104
aI107
aI110
aI112
aI115
aI117
aI120
aI123
aI125
aI128
aa(lp4
I3
aI5
aI8
aI11
aI14
aI17
aI20
aI23
aI26
aI29
aI33
aI36
aI39
aI42
aI45
aI48
aI51
aI54
aI57
aI60
aI63
aI66
aI68
aI72
aI75
aI78
aI81
aI84
aI87
aI90
aI92
aI96
aa(lp5
I29
aI32
aI33
aI38
aI40
aI43
aI46
aI49
aI53
aI56
aI59
aI62
aI64
aI67
aI69
aI71
aI74
aI79
aI81
aI83
aI86
aI90
aI92
aI95
aI99
aI102
aI105
aI108
aI110
aI113
aI116
aI119
aa(lp6
I10
aI13
aI15
aI18
aI2
aI3
aI4
aI6
aI9
aI12
aI15
aI18
aI20
aI24
aI27
aI29
aI32
aI36
aI39
aI42
aI45
aI47
aI51
aI53
aI55
aI58
aI60
aI65
aI67
aI70
aI73
aI76
aa(lp7
I28
aI30
aI33
aI2
aI21
aI24
aI26
aI29
aI33
aI36
aI39
aI42
aI44
aI47
aI50
aI53
aI56
aI59
aI60
aI63
aI67
aI70
aI73
aI75
aI79
aI82
aI85
aI88
aI89
aI93
aI96
aI99
aa(lp8
I4
aI6
aI9
aI36
aI3
aI6
aI10
aI12
aI15
aI18
aI21
aI23
aI27
aI29
aI34
aI36
aI40
aI43
aI46
aI49
aI53
aI55
aI59
aI61
aI64
aI67
aI70
aI73
aI76
aI79
aI82
aI85
aa(lp9
I26
aI26
aI31
aI12
aI39
aI42
aI46
aI48
aI51
aI54
aI56
aI60
aI63
aI65
aI69
aI71
aI73
aI75
aI79
aI81
aI85
aI88
aI90
aI94
aI95
aI99
aI102
aI105
aI108
aI110
aI114
aI117
aa(lp10
I16
aI19
aI21
aI34
aI15
aI18
aI21
aI24
aI26
aI29
aI31
aI35
aI38
aI41
aI44
aI47
aI49
aI50
aI54
aI57
aI59
aI63
aI66
aI68
aI71
aI73
aI77
aI79
aI82
aI85
aI88
aI91
aa(lp11
I18
aI20
aI23
aI25
aI38
aI39
aI42
aI45
aI48
aI51
aI53
aI56
aI60
aI63
aI65
aI68
aI69
aI72
aI74
aI77
aI79
aI83
aI86
aI89
aI91
aI94
aI97
aI100
aI103
aI106
aI109
aI111
aa(lp12
I2
aI3
aI6
aI26
aI28
aI31
aI34
aI38
aI41
aI44
aI46
aI48
aI53
aI56
aI58
aI62
aI63
aI67
aI69
aI72
aI76
aI79
aI81
aI84
aI88
aI91
aI93
aI96
aI100
aI103
aI105
aI109
aa(lp13
I15
aI19
aI21
aI9
aI28
aI31
aI35
aI37
aI40
aI43
aI46
aI48
aI50
aI54
aI57
aI59
aI63
aI66
aI66
aI71
aI74
aI77
aI79
aI81
aI84
aI87
aI91
aI94
aI96
aI99
aI102
aI105
aa(lp14
I2
aI2
aI2
aI25
aI11
aI13
aI16
aI19
aI2
aI3
aI3
aI6
aI8
aI11
aI14
aI16
aI20
aI23
aI26
aI29
aI31
aI35
aI37
aI40
aI43
aI46
aI49
aI52
aI54
aI58
aI60
aI63
aa(lp15
I5
aI2
aI4
aI5
aI28
aI30
aI34
aI37
aI22
aI23
aI27
aI29
aI32
aI35
aI38
aI41
aI43
aI47
aI49
aI52
aI54
aI57
aI60
aI63
aI64
aI68
aI70
aI73
aI76
aI78
aI81
aI84
aa(lp16
I50
aI8
aI10
aI7
aI8
aI10
aI14
aI16
aI38
aI40
aI45
aI47
aI50
aI53
aI56
aI59
aI60
aI63
aI66
aI69
aI70
aI72
aI78
aI81
aI83
aI85
aI88
aI91
aI94
aI97
aI101
aI103
aa(lp17
I7
aI52
aI55
aI13
aI9
aI13
aI14
aI18
aI20
aI23
aI26
aI29
aI31
aI35
aI38
aI41
aI45
aI48
aI51
aI54
aI56
aI59
aI63
aI66
aI68
aI72
aI75
aI78
aI80
aI84
aI86
aI90
aa(lp18
I27
aI9
aI12
aI58
aI16
aI18
aI21
aI24
aI21
aI23
aI26
aI29
aI32
aI35
aI38
aI41
aI45
aI47
aI50
aI53
aI56
aI59
aI61
aI64
aI65
aI70
aI73
aI76
aI79
aI81
aI84
aI87
aa(lp19
I22
aI29
aI32
aI14
aI61
aI63
aI67
aI70
aI27
aI30
aI33
aI36
aI38
aI42
aI44
aI47
aI50
aI53
aI55
aI59
aI62
aI64
aI66
aI70
aI73
aI76
aI78
aI81
aI84
aI87
aI88
aI93
aa(lp20
I4
aI25
aI26
aI35
aI17
aI20
aI23
aI26
aI72
aI75
aI78
aI80
aI83
aI86
aI89
aI92
aI94
aI98
aI100
aI103
aI107
aI109
aI112
aI114
aI117
aI120
aI122
aI125
aI128
aI132
aI135
aI137
aa(lp21
I27
aI8
aI2
aI30
aI37
aI39
aI42
aI46
aI28
aI30
aI34
aI36
aI39
aI42
aI44
aI47
aI50
aI53
aI55
aI58
aI61
aI64
aI66
aI69
aI71
aI75
aI77
aI80
aI83
aI85
aI88
aI90
aa(lp22
I22
aI30
aI10
aI3
aI34
aI36
aI39
aI42
aI49
aI51
aI54
aI57
aI59
aI62
aI65
aI67
aI70
aI74
aI76
aI79
aI82
aI85
aI87
aI90
aI93
aI96
aI98
aI101
aI104
aI106
aI109
aI112
aa(lp23
I17
aI24
aI33
aI13
aI5
aI8
aI11
aI13
aI46
aI47
aI50
aI54
aI57
aI60
aI62
aI65
aI66
aI71
aI73
aI76
aI79
aI82
aI84
aI87
aI91
aI92
aI97
aI100
aI102
aI105
aI108
aI111
aa(lp24
I26
aI20
aI26
aI36
aI16
aI18
aI21
aI24
aI15
aI18
aI21
aI24
aI27
aI29
aI33
aI36
aI38
aI41
aI43
aI46
aI49
aI52
aI55
aI58
aI59
aI63
aI66
aI67
aI70
aI74
aI77
aI79
aa(lp25
I23
aI29
aI23
aI30
aI39
aI42
aI2
aI3
aI27
aI31
aI34
aI37
aI39
aI43
aI45
aI48
aI51
aI54
aI57
aI60
aI63
aI66
aI68
aI71
aI75
aI77
aI80
aI83
aI85
aI89
aI91
aI94
aa(lp26
I14
aI26
aI31
aI25
aI32
aI36
aI45
aI48
aI6
aI9
aI11
aI14
aI15
aI19
aI21
aI25
aI28
aI31
aI34
aI37
aI39
aI42
aI45
aI48
aI51
aI54
aI57
aI59
aI61
aI64
aI67
aI70
aa(lp27
I12
aI16
aI29
aI34
aI28
aI31
aI38
aI41
aI50
aI53
aI56
aI59
aI62
aI65
aI69
aI71
aI73
aI75
aI79
aI81
aI85
aI89
aI91
aI94
aI96
aI100
aI103
aI106
aI109
aI112
aI114
aI117
aa(lp28
I2
aI14
aI19
aI32
aI37
aI39
aI34
aI37
aI45
aI47
aI50
aI53
aI55
aI59
aI61
aI64
aI66
aI70
aI72
aI75
aI78
aI80
aI81
aI86
aI90
aI92
aI95
aI98
aI101
aI104
aI107
aI108
aa(lp29
I28
aI2
aI15
aI22
aI36
aI39
aI42
aI44
aI40
aI43
aI45
aI48
aI50
aI55
aI57
aI61
aI63
aI65
aI69
aI71
aI74
aI77
aI80
aI83
aI86
aI89
aI91
aI94
aI97
aI100
aI103
aI106
aa(lp30
I16
aI31
aI3
aI19
aI24
aI27
aI41
aI44
aI47
aI50
aI53
aI56
aI59
aI62
aI64
aI67
aI69
aI73
aI75
aI77
aI79
aI83
aI86
aI89
aI91
aI95
aI98
aI100
aI103
aI106
aI109
aI112
aa(lp31
I28
aI3
aI33
aI5
aI22
aI25
aI29
aI31
aI48
aI51
aI54
aI57
aI59
aI62
aI65
aI68
aI70
aI73
aI75
aI77
aI79
aI84
aI87
aI89
aI93
aI96
aI99
aI102
aI105
aI106
aI110
aI113
aa(lp32
I15
aI19
aI2
aI37
aI7
aI10
aI27
aI30
aI35
aI38
aI40
aI43
aI45
aI48
aI51
aI53
aI54
aI58
aI60
aI63
aI66
aI69
aI71
aI74
aI76
aI79
aI82
aI85
aI86
aI90
aI92
aI95
aa(lp33
I5
aI31
aI21
aI3
aI40
aI43
aI13
aI16
aI33
aI36
aI38
aI41
aI44
aI46
aI49
aI51
aI54
aI57
aI60
aI63
aI65
aI68
aI71
aI73
aI76
aI79
aI82
aI84
aI86
aI89
aI92
aI95
aa(lp34
I6
aI18
aI33
aI25
aI6
aI9
aI45
aI48
aI19
aI21
aI24
aI26
aI29
aI32
aI35
aI37
aI41
aI44
aI46
aI49
aI52
aI55
aI57
aI60
aI62
aI66
aI69
aI71
aI75
aI77
aI80
aI82
aa(lp35
I6
aI8
aI21
aI36
aI27
aI30
aI12
aI15
aI51
aI53
aI57
aI60
aI62
aI65
aI68
aI71
aI73
aI75
aI79
aI81
aI84
aI87
aI90
aI93
aI95
aI99
aI102
aI104
aI107
aI110
aI113
aI116
aa(lp36
I11
aI9
aI10
aI24
aI40
aI43
aI33
aI36
aI18
aI20
aI23
aI26
aI30
aI32
aI35
aI38
aI41
aI44
aI47
aI50
aI53
aI56
aI58
aI61
aI64
aI67
aI69
aI73
aI76
aI79
aI82
aI84
aa(lp37
I3
aI2
aI12
aI13
aI27
aI30
aI45
aI48
aI39
aI42
aI45
aI48
aI50
aI53
aI56
aI59
aI63
aI66
aI69
aI71
aI74
aI77
aI79
aI81
aI86
aI87
aI91
aI94
aI96
aI100
aI103
aI105
aa(lp38
I17
aI9
aI3
aI16
aI14
aI3
aI33
aI36
aI51
aI55
aI57
aI60
aI63
aI66
aI69
aI71
aI73
aI77
aI79
aI81
aI86
aI89
aI91
aI94
aI96
aI101
aI103
aI106
aI110
aI112
aI115
aI118
aa.